; Function Attrs: nounwind uwtable
define internal noundef i32 @apply_option_parse_space_change(ptr noundef readonly captures(none) %0, ptr noundef readnone %1, i32 noundef %2) #0 {
  %.not = icmp eq ptr %1, null
  br i1 %.not, label %5, label %4

4:                                                ; preds = %3
  tail call void (ptr, i32, ptr, ...) @BUG_fl(ptr noundef nonnull @.str.180, i32 noundef 4929, ptr noundef nonnull @.str.271) #25
  unreachable

5:                                                ; preds = %3
  %6 = getelementptr inbounds nuw i8, ptr %0, i64 16
  %7 = load ptr, ptr %6, align 8, !tbaa !202
  %.not4 = icmp eq i32 %2, 0
  %spec.select = zext i1 %.not4 to i32
  %8 = getelementptr inbounds nuw i8, ptr %7, i64 420
  store i32 %spec.select, ptr %8, align 4, !tbaa !33
  ret i32 0
}